target datalayout = "e-m:e-p270:32:32-p271:32:32-p272:64:64-i64:64-i128:128-f80:128-n8:16:32:64-S128"
target triple = "x86_64-pc-linux-gnu"

%"struct.tbb::detail::r1::circular_doubly_linked_list_with_sentinel::base_node" = type { ptr, ptr }
%"class.tbb::detail::r1::address_waiter" = type { %"class.tbb::detail::r1::concurrent_monitor_base.base", [4 x i8] }
%"class.tbb::detail::r1::concurrent_monitor_base.base" = type <{ %"class.tbb::detail::r1::concurrent_monitor_mutex", %"class.tbb::detail::r1::circular_doubly_linked_list_with_sentinel", %"struct.std::atomic.2" }>
%"class.tbb::detail::r1::concurrent_monitor_mutex" = type { %"struct.std::atomic", %"struct.std::atomic" }
%"struct.std::atomic" = type { %"struct.std::__atomic_base" }
%"struct.std::__atomic_base" = type { i32 }
%"class.tbb::detail::r1::circular_doubly_linked_list_with_sentinel" = type { %"struct.std::atomic.0", %"struct.tbb::detail::r1::circular_doubly_linked_list_with_sentinel::base_node" }
%"struct.std::atomic.0" = type { %"struct.std::__atomic_base.1" }
%"struct.std::__atomic_base.1" = type { i64 }
%"struct.std::atomic.2" = type { %"struct.std::__atomic_base.3" }
%"struct.std::__atomic_base.3" = type { i32 }
%"class.tbb::detail::r1::sleep_node" = type <{ %"class.tbb::detail::r1::wait_node", %"class.tbb::detail::d0::aligned_space", [4 x i8] }>
%"class.tbb::detail::r1::wait_node" = type { ptr, %"struct.tbb::detail::r1::circular_doubly_linked_list_with_sentinel::base_node", %"struct.tbb::detail::r1::address_context", %"struct.std::atomic.4", i8, i8, i8, i32 }
%"struct.tbb::detail::r1::address_context" = type { ptr, i64 }
%"struct.std::atomic.4" = type { %"struct.std::__atomic_base.5" }
%"struct.std::__atomic_base.5" = type { i8 }
%"class.tbb::detail::d0::aligned_space" = type { [4 x i8] }

; Function Attrs: mustprogress nounwind sspstrong uwtable
define linkonce_odr void @_ZNSt13__atomic_baseIbEC2Eb(ptr noundef nonnull align 1 dereferenceable(1) %0, i1 noundef zeroext %1) unnamed_addr #2 comdat align 2 {
  %3 = alloca ptr, align 8
  %4 = alloca i8, align 1
  store ptr %0, ptr %3, align 8, !tbaa !61
  %5 = zext i1 %1 to i8
  store i8 %5, ptr %4, align 1, !tbaa !60
  %6 = load ptr, ptr %3, align 8
  %7 = getelementptr inbounds nuw %"struct.std::__atomic_base.5", ptr %6, i32 0, i32 0
  %8 = load i8, ptr %4, align 1, !tbaa !60, !range !35, !noundef !36
  %9 = trunc i8 %8 to i1
  %10 = zext i1 %9 to i8
  store i8 %10, ptr %7, align 1, !tbaa !63
  ret void
}

; Function Attrs: mustprogress nounwind sspstrong uwtable
define linkonce_odr void @_ZNSt6atomicIbEC2Eb(ptr noundef nonnull align 1 dereferenceable(1) %0, i1 noundef zeroext %1) unnamed_addr #2 comdat align 2 {
  %3 = alloca ptr, align 8
  %4 = alloca i8, align 1
  store ptr %0, ptr %3, align 8, !tbaa !58
  %5 = zext i1 %1 to i8
  store i8 %5, ptr %4, align 1, !tbaa !60
  %6 = load ptr, ptr %3, align 8
  %7 = getelementptr inbounds nuw %"struct.std::atomic.4", ptr %6, i32 0, i32 0
  %8 = load i8, ptr %4, align 1, !tbaa !60, !range !35, !noundef !36
  %9 = trunc i8 %8 to i1
  call void @_ZNSt13__atomic_baseIbEC2Eb(ptr noundef nonnull align 1 dereferenceable(1) %7, i1 noundef zeroext %9) #12
  ret void
}

; Function Attrs: mustprogress nounwind sspstrong uwtable
define linkonce_odr void @_ZN3tbb6detail2r141circular_doubly_linked_list_with_sentinel9base_nodeC2Ev(ptr noundef nonnull align 8 dereferenceable(16) %0) unnamed_addr #2 comdat align 2 {
  %2 = alloca ptr, align 8
  store ptr %0, ptr %2, align 8, !tbaa !41
  %3 = load ptr, ptr %2, align 8
  %4 = getelementptr inbounds nuw %"struct.tbb::detail::r1::circular_doubly_linked_list_with_sentinel::base_node", ptr %3, i32 0, i32 0
  store ptr inttoptr (i64 3452816845 to ptr), ptr %4, align 8, !tbaa !47
  %5 = getelementptr inbounds nuw %"struct.tbb::detail::r1::circular_doubly_linked_list_with_sentinel::base_node", ptr %3, i32 0, i32 1
  store ptr inttoptr (i64 3452816845 to ptr), ptr %5, align 8, !tbaa !42
  ret void
}

; Function Attrs: mustprogress sspstrong uwtable
define linkonce_odr void @_ZN3tbb6detail2r19wait_nodeINS1_15address_contextEEC2ES3_(ptr noundef nonnull align 8 dereferenceable(48) %0, ptr %1, i64 %2) unnamed_addr #0 comdat align 2 {
  %4 = alloca %"struct.tbb::detail::r1::address_context", align 8
  %5 = alloca ptr, align 8
  %6 = getelementptr inbounds nuw { ptr, i64 }, ptr %4, i32 0, i32 0
  store ptr %1, ptr %6, align 8
  %7 = getelementptr inbounds nuw { ptr, i64 }, ptr %4, i32 0, i32 1
  store i64 %2, ptr %7, align 8
  store ptr %0, ptr %5, align 8, !tbaa !43
  %8 = load ptr, ptr %5, align 8
  %9 = getelementptr inbounds i8, ptr %8, i64 8
  call void @_ZN3tbb6detail2r141circular_doubly_linked_list_with_sentinel9base_nodeC2Ev(ptr noundef nonnull align 8 dereferenceable(16) %9)
  store ptr getelementptr inbounds inrange(-16, 48) ({ [8 x ptr] }, ptr @_ZTVN3tbb6detail2r19wait_nodeINS1_15address_contextEEE, i32 0, i32 0, i32 2), ptr %8, align 8, !tbaa !25
  %10 = getelementptr inbounds nuw %"class.tbb::detail::r1::wait_node", ptr %8, i32 0, i32 2
  call void @llvm.memcpy.p0.p0.i64(ptr align 8 %10, ptr align 8 %4, i64 16, i1 false), !tbaa.struct !45
  %11 = getelementptr inbounds nuw %"class.tbb::detail::r1::wait_node", ptr %8, i32 0, i32 3
  call void @_ZNSt6atomicIbEC2Eb(ptr noundef nonnull align 1 dereferenceable(1) %11, i1 noundef zeroext false) #12
  %12 = getelementptr inbounds nuw %"class.tbb::detail::r1::wait_node", ptr %8, i32 0, i32 4
  store i8 0, ptr %12, align 1, !tbaa !27
  %13 = getelementptr inbounds nuw %"class.tbb::detail::r1::wait_node", ptr %8, i32 0, i32 5
  store i8 0, ptr %13, align 2, !tbaa !37
  %14 = getelementptr inbounds nuw %"class.tbb::detail::r1::wait_node", ptr %8, i32 0, i32 6
  store i8 0, ptr %14, align 1, !tbaa !56
  %15 = getelementptr inbounds nuw %"class.tbb::detail::r1::wait_node", ptr %8, i32 0, i32 7
  store i32 0, ptr %15, align 4, !tbaa !57
  ret void
}

; Function Attrs: inlinehint mustprogress sspstrong uwtable
define linkonce_odr void @_ZN3tbb6detail2r110sleep_nodeINS1_15address_contextEECI2NS1_9wait_nodeIS3_EEES3_(ptr noundef nonnull align 8 dereferenceable(52) %0, ptr %1, i64 %2) unnamed_addr #3 comdat align 2 {
  %4 = alloca %"struct.tbb::detail::r1::address_context", align 8
  %5 = alloca ptr, align 8
  %6 = getelementptr inbounds nuw { ptr, i64 }, ptr %4, i32 0, i32 0
  store ptr %1, ptr %6, align 8
  %7 = getelementptr inbounds nuw { ptr, i64 }, ptr %4, i32 0, i32 1
  store i64 %2, ptr %7, align 8
  store ptr %0, ptr %5, align 8, !tbaa !17
  %8 = load ptr, ptr %5, align 8
  %9 = getelementptr inbounds nuw { ptr, i64 }, ptr %4, i32 0, i32 0
  %10 = load ptr, ptr %9, align 8
  %11 = getelementptr inbounds nuw { ptr, i64 }, ptr %4, i32 0, i32 1
  %12 = load i64, ptr %11, align 8
  call void @_ZN3tbb6detail2r19wait_nodeINS1_15address_contextEEC2ES3_(ptr noundef nonnull align 8 dereferenceable(48) %8, ptr %10, i64 %12)
  store ptr getelementptr inbounds inrange(-16, 48) ({ [8 x ptr] }, ptr @_ZTVN3tbb6detail2r110sleep_nodeINS1_15address_contextEEE, i32 0, i32 0, i32 2), ptr %8, align 8, !tbaa !25
  ret void
}

; Function Attrs: mustprogress nounwind sspstrong uwtable
define linkonce_odr void @_ZN3tbb6detail2r115address_contextC2EPvm(ptr noundef nonnull align 8 dereferenceable(16) %0, ptr noundef %1, i64 noundef %2) unnamed_addr #2 comdat align 2 {
  %4 = alloca ptr, align 8
  %5 = alloca ptr, align 8
  %6 = alloca i64, align 8
  store ptr %0, ptr %4, align 8, !tbaa !20
  store ptr %1, ptr %5, align 8, !tbaa !12
  store i64 %2, ptr %6, align 8, !tbaa !3
  %7 = load ptr, ptr %4, align 8
  %8 = getelementptr inbounds nuw %"struct.tbb::detail::r1::address_context", ptr %7, i32 0, i32 0
  %9 = load ptr, ptr %5, align 8, !tbaa !12
  store ptr %9, ptr %8, align 8, !tbaa !22
  %10 = getelementptr inbounds nuw %"struct.tbb::detail::r1::address_context", ptr %7, i32 0, i32 1
  %11 = load i64, ptr %6, align 8, !tbaa !3
  store i64 %11, ptr %10, align 8, !tbaa !24
  ret void
}

; Function Attrs: mustprogress nounwind sspstrong uwtable
define internal noundef nonnull align 8 dereferenceable(36) ptr @_ZN3tbb6detail2r1L18get_address_waiterEPv(ptr noundef %0) #2 {
  %2 = alloca ptr, align 8
  %3 = alloca i64, align 8
  store ptr %0, ptr %2, align 8, !tbaa !12
  call void @llvm.lifetime.start.p0(i64 8, ptr %3) #12
  %4 = load ptr, ptr %2, align 8, !tbaa !12
  %5 = ptrtoint ptr %4 to i64
  store i64 %5, ptr %3, align 8, !tbaa !3
  %6 = load i64, ptr %3, align 8, !tbaa !3
  %7 = lshr i64 %6, 5
  %8 = load i64, ptr %3, align 8, !tbaa !3
  %9 = xor i64 %7, %8
  %10 = urem i64 %9, 2048
  %11 = getelementptr inbounds nuw [2048 x %"class.tbb::detail::r1::address_waiter"], ptr @_ZN3tbb6detail2r1L20address_waiter_tableE, i64 0, i64 %10
  call void @llvm.lifetime.end.p0(i64 8, ptr %3) #12
  ret ptr %11
}

; Function Attrs: mustprogress sspstrong uwtable
define void @_ZN3tbb6detail2r115wait_on_addressEPvRNS0_2d113delegate_baseEm(ptr noundef %0, ptr noundef nonnull align 8 dereferenceable(8) %1, i64 noundef %2) #0 personality ptr @__gxx_personality_v0 {
  %4 = alloca ptr, align 8
  %5 = alloca ptr, align 8
  %6 = alloca i64, align 8
  %7 = alloca ptr, align 8
  %8 = alloca %"class.tbb::detail::r1::sleep_node", align 8
  %9 = alloca %"struct.tbb::detail::r1::address_context", align 8
  %10 = alloca ptr, align 8
  %11 = alloca i32, align 4
  store ptr %0, ptr %4, align 8, !tbaa !12
  store ptr %1, ptr %5, align 8, !tbaa !13
  store i64 %2, ptr %6, align 8, !tbaa !3
  call void @llvm.lifetime.start.p0(i64 8, ptr %7) #12
  %12 = load ptr, ptr %4, align 8, !tbaa !12
  %13 = call noundef nonnull align 8 dereferenceable(36) ptr @_ZN3tbb6detail2r1L18get_address_waiterEPv(ptr noundef %12)
  store ptr %13, ptr %7, align 8, !tbaa !15
  %14 = load ptr, ptr %7, align 8, !tbaa !15
  %15 = load ptr, ptr %5, align 8, !tbaa !13
  call void @llvm.lifetime.start.p0(i64 56, ptr %8) #12
  %16 = load ptr, ptr %4, align 8, !tbaa !12
  %17 = load i64, ptr %6, align 8, !tbaa !3
  call void @_ZN3tbb6detail2r115address_contextC2EPvm(ptr noundef nonnull align 8 dereferenceable(16) %9, ptr noundef %16, i64 noundef %17)
  %18 = getelementptr inbounds nuw { ptr, i64 }, ptr %9, i32 0, i32 0
  %19 = load ptr, ptr %18, align 8
  %20 = getelementptr inbounds nuw { ptr, i64 }, ptr %9, i32 0, i32 1
  %21 = load i64, ptr %20, align 8
  call void @_ZN3tbb6detail2r110sleep_nodeINS1_15address_contextEECI2NS1_9wait_nodeIS3_EEES3_(ptr noundef nonnull align 8 dereferenceable(52) %8, ptr %19, i64 %21)
  %22 = invoke noundef zeroext i1 @_ZN3tbb6detail2r123concurrent_monitor_baseINS1_15address_contextEE4waitINS1_10sleep_nodeIS3_EERNS0_2d113delegate_baseEEEbOT0_OT_(ptr noundef nonnull align 8 dereferenceable(36) %14, ptr noundef nonnull align 8 dereferenceable(8) %15, ptr noundef nonnull align 8 dereferenceable(52) %8)
          to label %23 unwind label %24

23:                                               ; preds = %3
  call void @_ZN3tbb6detail2r110sleep_nodeINS1_15address_contextEED2Ev(ptr noundef nonnull align 8 dereferenceable(52) %8) #12
  call void @llvm.lifetime.end.p0(i64 56, ptr %8) #12
  call void @llvm.lifetime.end.p0(i64 8, ptr %7) #12
  ret void

24:                                               ; preds = %3
  %25 = landingpad { ptr, i32 }
          cleanup
  %26 = extractvalue { ptr, i32 } %25, 0
  store ptr %26, ptr %10, align 8
  %27 = extractvalue { ptr, i32 } %25, 1
  store i32 %27, ptr %11, align 4
  call void @_ZN3tbb6detail2r110sleep_nodeINS1_15address_contextEED2Ev(ptr noundef nonnull align 8 dereferenceable(52) %8) #12
  call void @llvm.lifetime.end.p0(i64 56, ptr %8) #12
  call void @llvm.lifetime.end.p0(i64 8, ptr %7) #12
  br label %28

28:                                               ; preds = %24
  %29 = load ptr, ptr %10, align 8
  %30 = load i32, ptr %11, align 4
  %31 = insertvalue { ptr, i32 } poison, ptr %29, 0
  %32 = insertvalue { ptr, i32 } %31, i32 %30, 1
  resume { ptr, i32 } %32
}