; Function Attrs: mustprogress sspstrong uwtable
define void @_ZN3tbb6detail2r115wait_on_addressEPvRNS0_2d113delegate_baseEm(ptr noundef %0, ptr noundef nonnull align 8 dereferenceable(8) %1, i64 noundef %2) local_unnamed_addr #0 personality ptr @__gxx_personality_v0 {
  %4 = alloca %"class.tbb::detail::r1::sleep_node", align 8
  %5 = ptrtoint ptr %0 to i64
  %6 = lshr i64 %5, 5
  %7 = xor i64 %6, %5
  %8 = and i64 %7, 2047
  %9 = getelementptr inbounds nuw [2048 x %"class.tbb::detail::r1::address_waiter"], ptr @_ZN3tbb6detail2r1L20address_waiter_tableE, i64 0, i64 %8
  call void @llvm.lifetime.start.p0(i64 56, ptr nonnull %4) #8
  %10 = getelementptr inbounds nuw i8, ptr %4, i64 8
  store ptr inttoptr (i64 3452816845 to ptr), ptr %10, align 8, !tbaa !9
  %11 = getelementptr inbounds nuw i8, ptr %4, i64 16
  store ptr inttoptr (i64 3452816845 to ptr), ptr %11, align 8, !tbaa !13
  %12 = getelementptr inbounds nuw i8, ptr %4, i64 24
  store ptr %0, ptr %12, align 8, !tbaa !14
  %.sroa.2.0..sroa_idx.i.i = getelementptr inbounds nuw i8, ptr %4, i64 32
  store i64 %2, ptr %.sroa.2.0..sroa_idx.i.i, align 8, !tbaa !15
  %13 = getelementptr inbounds nuw i8, ptr %4, i64 40
  store i64 0, ptr %13, align 8
  store ptr getelementptr inbounds nuw inrange(-16, 48) (i8, ptr @_ZTVN3tbb6detail2r110sleep_nodeINS1_15address_contextEEE, i64 16), ptr %4, align 8, !tbaa !17
  %14 = invoke noundef zeroext i1 @_ZN3tbb6detail2r123concurrent_monitor_baseINS1_15address_contextEE4waitINS1_10sleep_nodeIS3_EERNS0_2d113delegate_baseEEEbOT0_OT_(ptr noundef nonnull align 8 dereferenceable(36) %9, ptr noundef nonnull align 8 dereferenceable(8) %1, ptr noundef nonnull align 8 dereferenceable(52) %4)
          to label %15 unwind label %34

15:                                               ; preds = %3
  store ptr getelementptr inbounds nuw inrange(-16, 48) (i8, ptr @_ZTVN3tbb6detail2r110sleep_nodeINS1_15address_contextEEE, i64 16), ptr %4, align 8, !tbaa !17
  %16 = getelementptr inbounds nuw i8, ptr %4, i64 41
  %17 = load i8, ptr %16, align 1, !tbaa !19, !range !26, !noundef !27
  %18 = trunc nuw i8 %17 to i1
  br i1 %18, label %19, label %_ZN3tbb6detail2r110sleep_nodeINS1_15address_contextEED2Ev.exit

19:                                               ; preds = %15
  %20 = getelementptr inbounds nuw i8, ptr %4, i64 42
  %21 = load i8, ptr %20, align 2, !tbaa !28, !range !26, !noundef !27
  %22 = trunc nuw i8 %21 to i1
  br i1 %22, label %23, label %_ZN3tbb6detail2r110sleep_nodeINS1_15address_contextEED2Ev.exit

23:                                               ; preds = %19
  %24 = getelementptr inbounds nuw i8, ptr %4, i64 48
  %25 = cmpxchg ptr %24, i32 0, i32 1 seq_cst seq_cst, align 4
  %26 = extractvalue { i32, i1 } %25, 1
  br i1 %26, label %_ZN3tbb6detail2r110sleep_nodeINS1_15address_contextEED2Ev.exit, label %27

27:                                               ; preds = %23
  %28 = extractvalue { i32, i1 } %25, 0
  %.not.i.i = icmp eq i32 %28, 2
  br i1 %.not.i.i, label %.lr.ph.i.i.preheader, label %29

29:                                               ; preds = %27
  %30 = atomicrmw xchg ptr %24, i32 2 seq_cst, align 4
  %31 = icmp eq i32 %30, 0
  br i1 %31, label %_ZN3tbb6detail2r110sleep_nodeINS1_15address_contextEED2Ev.exit, label %.lr.ph.i.i.preheader

.lr.ph.i.i.preheader:                             ; preds = %29, %27
  br label %.lr.ph.i.i

.lr.ph.i.i:                                       ; preds = %.lr.ph.i.i.preheader, %.lr.ph.i.i
  %32 = call i64 (i64, ...) @syscall(i64 noundef 202, ptr noundef nonnull align 4 dereferenceable(4) %24, i32 noundef 128, i32 noundef 2, ptr noundef null, ptr noundef null, i32 noundef 0) #8
  %33 = atomicrmw xchg ptr %24, i32 2 seq_cst, align 4
  %.not1.i.i = icmp eq i32 %33, 0
  br i1 %.not1.i.i, label %_ZN3tbb6detail2r110sleep_nodeINS1_15address_contextEED2Ev.exit, label %.lr.ph.i.i, !llvm.loop !29

_ZN3tbb6detail2r110sleep_nodeINS1_15address_contextEED2Ev.exit: ; preds = %.lr.ph.i.i, %15, %19, %23, %29
  call void @llvm.lifetime.end.p0(i64 56, ptr nonnull %4) #8
  ret void

34:                                               ; preds = %3
  %35 = landingpad { ptr, i32 }
          cleanup
  call void @_ZN3tbb6detail2r110sleep_nodeINS1_15address_contextEED2Ev(ptr noundef nonnull align 8 dereferenceable(52) %4) #8
  call void @llvm.lifetime.end.p0(i64 56, ptr nonnull %4) #8
  resume { ptr, i32 } %35
}